libavahi-qt3.so.1 libavahi-qt3-1 #MINVER#
 _ZN10AvahiWatch11qt_propertyEiiP8QVariant@Base 0.6.16-3etch1
 _ZN10AvahiWatch16setWatchedEventsE15AvahiWatchEvent@Base 0.6.16-3etch1
 _ZN10AvahiWatch16staticMetaObjectEv@Base 0.6.16-3etch1
 _ZN10AvahiWatch18qt_static_propertyEP7QObjectiiP8QVariant@Base 0.6.16-3etch1
 _ZN10AvahiWatch2trEPKcS1_@Base 0.6.16-3etch1
 _ZN10AvahiWatch5gotInEv@Base 0.6.16-3etch1
 _ZN10AvahiWatch6gotOutEv@Base 0.6.16-3etch1
 _ZN10AvahiWatch6trUtf8EPKcS1_@Base 0.6.16-3etch1
 _ZN10AvahiWatch7metaObjE@Base 0.6.16-3etch1
 _ZN10AvahiWatch7qt_castEPKc@Base 0.6.16-3etch1
 _ZN10AvahiWatch7qt_emitEiP8QUObject@Base 0.6.16-3etch1
 _ZN10AvahiWatch9qt_invokeEiP8QUObject@Base 0.6.16-3etch1
 _ZN10AvahiWatchC1Ei15AvahiWatchEventPFvPS_iS0_PvES2_@Base 0.6.16-3etch1
 _ZN10AvahiWatchC2Ei15AvahiWatchEventPFvPS_iS0_PvES2_@Base 0.6.16-3etch1
 _ZN10AvahiWatchD0Ev@Base 0.6.16-3etch1
 _ZN10AvahiWatchD1Ev@Base 0.6.16-3etch1
 _ZN12AvahiTimeout11qt_propertyEiiP8QVariant@Base 0.6.16-3etch1
 _ZN12AvahiTimeout16staticMetaObjectEv@Base 0.6.16-3etch1
 _ZN12AvahiTimeout18qt_static_propertyEP7QObjectiiP8QVariant@Base 0.6.16-3etch1
 _ZN12AvahiTimeout2trEPKcS1_@Base 0.6.16-3etch1
 _ZN12AvahiTimeout6trUtf8EPKcS1_@Base 0.6.16-3etch1
 _ZN12AvahiTimeout6updateEPK7timeval@Base 0.6.16-3etch1
 _ZN12AvahiTimeout7metaObjE@Base 0.6.16-3etch1
 _ZN12AvahiTimeout7qt_castEPKc@Base 0.6.16-3etch1
 _ZN12AvahiTimeout7qt_emitEiP8QUObject@Base 0.6.16-3etch1
 _ZN12AvahiTimeout7timeoutEv@Base 0.6.16-3etch1
 _ZN12AvahiTimeout9qt_invokeEiP8QUObject@Base 0.6.16-3etch1
 _ZN12AvahiTimeoutC1EPK7timevalPFvPS_PvES4_@Base 0.6.16-3etch1
 _ZN12AvahiTimeoutC2EPK7timevalPFvPS_PvES4_@Base 0.6.16-3etch1
 _ZN12AvahiTimeoutD0Ev@Base 0.6.16-3etch1
 _ZN12AvahiTimeoutD1Ev@Base 0.6.16-3etch1
 _ZNK10AvahiWatch10metaObjectEv@Base 0.6.16-3etch1
 _ZNK10AvahiWatch9classNameEv@Base 0.6.16-3etch1
 _ZNK12AvahiTimeout10metaObjectEv@Base 0.6.16-3etch1
 _ZNK12AvahiTimeout9classNameEv@Base 0.6.16-3etch1
 _ZNK6QGList5countEv@Base 0.6.16-3etch1
 _ZTI10AvahiWatch@Base 0.6.16-3etch1
 _ZTI12AvahiTimeout@Base 0.6.16-3etch1
 _ZTI6QGList@Base 0.6.16-3etch1
 _ZTS10AvahiWatch@Base 0.6.16-3etch1
 _ZTS12AvahiTimeout@Base 0.6.16-3etch1
 _ZTS6QGList@Base 0.6.16-3etch1
 _ZTV10AvahiWatch@Base 0.6.16-3etch1
 _ZTV12AvahiTimeout@Base 0.6.16-3etch1
 _ZTV6QGList@Base 0.6.16-3etch1
 avahi_qt_poll_get@Base 0.6.16-3etch1
